; Function Attrs: mustprogress nofree norecurse nosync nounwind willreturn memory(read, argmem: readwrite, inaccessiblemem: none) uwtable
define <2 x float> @_ZNK2cv8Subdiv2D9getVertexEiPi(ptr noundef nonnull readonly align 8 captures(none) dereferenceable(80) %0, i32 noundef %1, ptr noundef writeonly %2) local_unnamed_addr #5 align 2 {
  %.not = icmp eq ptr %2, null
  %.pre = load ptr, ptr %0, align 8, !tbaa !11
  %.pre4 = sext i32 %1 to i64
  br i1 %.not, label %._crit_edge, label %4

4:                                                ; preds = %3
  %5 = getelementptr inbounds nuw %"struct.cv::Subdiv2D::Vertex", ptr %.pre, i64 %.pre4
  %6 = load i32, ptr %5, align 4, !tbaa !14
  store i32 %6, ptr %2, align 4, !tbaa !9
  br label %._crit_edge

._crit_edge:                                      ; preds = %3, %4
  %7 = getelementptr inbounds nuw %"struct.cv::Subdiv2D::Vertex", ptr %.pre, i64 %.pre4, i32 2
  %.sroa.0.0.copyload = load <2 x float>, ptr %7, align 4
  ret <2 x float> %.sroa.0.0.copyload
}